; Function Attrs: mustprogress nofree norecurse nosync nounwind willreturn memory(read, argmem: readwrite, inaccessiblemem: none) uwtable
define hidden zeroext i16 @inStream_readChar(ptr nocapture noundef %0) local_unnamed_addr #5 {
  %2 = getelementptr inbounds i8, ptr %0, i64 12
  %3 = load i16, ptr %2, align 4
  %.not.i = icmp eq i16 %3, 0
  br i1 %.not.i, label %4, label %readBytes.exit

4:                                                ; preds = %1
  %5 = getelementptr inbounds i8, ptr %0, i64 8
  %6 = load i32, ptr %5, align 8
  %7 = icmp slt i32 %6, 2
  br i1 %7, label %8, label %9

8:                                                ; preds = %4
  store i16 113, ptr %2, align 4
  br label %readBytes.exit

9:                                                ; preds = %4
  %10 = load ptr, ptr %0, align 8
  %.0.copyload = load i16, ptr %10, align 1
  %11 = getelementptr inbounds i8, ptr %10, i64 2
  store ptr %11, ptr %0, align 8
  %12 = add nsw i32 %6, -2
  store i32 %12, ptr %5, align 8
  br label %readBytes.exit

readBytes.exit:                                   ; preds = %1, %8, %9
  %.0 = phi i16 [ 0, %8 ], [ %.0.copyload, %9 ], [ 0, %1 ]
  %rev = tail call i16 @llvm.bswap.i16(i16 %.0)
  ret i16 %rev
}